; Function Attrs: nounwind uwtable
define internal void @create_mlkem_raw_key(ptr noundef captures(none) %0, ptr noundef captures(none) %1, ptr noundef writeonly captures(none) %2, ptr readnone captures(none) %3) #1 {
  %5 = alloca [4096 x i8], align 16
  call void @llvm.lifetime.start.p0(i64 4096, ptr nonnull %5) #6
  %6 = load ptr, ptr %0, align 8, !tbaa !11
  %.0.copyload.i25.i = load i16, ptr %6, align 1
  %7 = getelementptr inbounds nuw i8, ptr %6, i64 2
  store ptr %7, ptr %0, align 8, !tbaa !11
  %8 = load i64, ptr %1, align 8, !tbaa !9
  %9 = add i64 %8, -2
  store i64 %9, ptr %1, align 8, !tbaa !9
  %10 = urem i16 %.0.copyload.i25.i, 6
  switch i16 %10, label %19 [
    i16 0, label %select_keytype_and_size.exit
    i16 1, label %11
    i16 2, label %12
    i16 3, label %13
    i16 4, label %14
  ]

11:                                               ; preds = %4
  br label %select_keytype_and_size.exit

12:                                               ; preds = %4
  br label %select_keytype_and_size.exit

13:                                               ; preds = %4
  br label %select_keytype_and_size.exit

14:                                               ; preds = %4
  %.0.copyload.i23.i = load i16, ptr %7, align 1
  %15 = getelementptr inbounds nuw i8, ptr %6, i64 4
  store ptr %15, ptr %0, align 8, !tbaa !11
  %16 = add i64 %8, -4
  store i64 %16, ptr %1, align 8, !tbaa !9
  %17 = and i16 %.0.copyload.i23.i, 1023
  %18 = zext nneg i16 %17 to i64
  br label %select_keytype_and_size.exit

19:                                               ; preds = %4
  br label %select_keytype_and_size.exit

select_keytype_and_size.exit:                     ; preds = %19, %14, %13, %12, %11, %4
  %20 = phi ptr [ %7, %19 ], [ %15, %14 ], [ %7, %13 ], [ %7, %12 ], [ %7, %11 ], [ %7, %4 ]
  %.012 = phi ptr [ null, %19 ], [ @.str.14, %14 ], [ @.str.15, %13 ], [ @.str.14, %12 ], [ @.str.13, %11 ], [ @.str.12, %4 ]
  %.sink.i = phi i64 [ 0, %19 ], [ %18, %14 ], [ 13, %13 ], [ 1568, %12 ], [ 1184, %11 ], [ 800, %4 ]
  %21 = load i8, ptr %20, align 1, !tbaa !8
  %22 = and i8 %21, 1
  %.not6.not = icmp eq i8 %22, 0
  br i1 %.not6.not, label %23, label %.thread

23:                                               ; preds = %select_keytype_and_size.exit
  %24 = shl nuw nsw i64 %.sink.i, 1
  %25 = add nuw nsw i64 %24, 32
  %26 = trunc nuw nsw i64 %25 to i32
  %27 = call i32 @RAND_bytes(ptr noundef nonnull %5, i32 noundef %26) #6
  %.not7 = icmp eq i32 %27, 0
  br i1 %.not7, label %34, label %31

.thread:                                          ; preds = %select_keytype_and_size.exit
  %28 = trunc nuw nsw i64 %.sink.i to i32
  %29 = call i32 @RAND_bytes(ptr noundef nonnull %5, i32 noundef %28) #6
  %.not714 = icmp eq i32 %29, 0
  br i1 %.not714, label %34, label %.thread16

.thread16:                                        ; preds = %.thread
  %30 = call ptr @EVP_PKEY_new_raw_public_key_ex(ptr noundef null, ptr noundef %.012, ptr noundef null, ptr noundef nonnull %5, i64 noundef %.sink.i) #6
  br label %33

31:                                               ; preds = %23
  %32 = call ptr @EVP_PKEY_new_raw_private_key_ex(ptr noundef null, ptr noundef %.012, ptr noundef null, ptr noundef nonnull %5, i64 noundef %25) #6
  br label %33

33:                                               ; preds = %31, %.thread16
  %.05 = phi ptr [ %30, %.thread16 ], [ %32, %31 ]
  store ptr %.05, ptr %2, align 8, !tbaa !4
  br label %34

34:                                               ; preds = %.thread, %23, %33
  call void @llvm.lifetime.end.p0(i64 4096, ptr nonnull %5) #6
  ret void
}